; ModuleID = '10/1934.c'
source_filename = "10/1934.c"
target datalayout = "e-m:e-p270:32:32-p271:32:32-p272:64:64-i64:64-f80:128-n8:16:32:64-S128"
target triple = "x86_64-pc-linux-gnu"

@.str = private unnamed_addr constant [3 x i8] c"%d\00", align 1
@n = common dso_local global i32 0, align 4
@x = common dso_local global [26 x i32] zeroinitializer, align 16

; Function Attrs: noinline nounwind uwtable
define dso_local i32 @max(i32 %0, i32 %1) #0 {
  %3 = alloca i32, align 4
  %4 = alloca i32, align 4
  %5 = alloca i32, align 4
  store i32 %0, i32* %4, align 4
  store i32 %1, i32* %5, align 4
  %6 = load i32, i32* %4, align 4
  %7 = load i32, i32* %5, align 4
  %8 = icmp sge i32 %6, %7
  br i1 %8, label %9, label %11

9:                                                ; preds = %2
  %10 = load i32, i32* %4, align 4
  store i32 %10, i32* %3, align 4
  br label %13

11:                                               ; preds = %2
  %12 = load i32, i32* %5, align 4
  store i32 %12, i32* %3, align 4
  br label %13

13:                                               ; preds = %11, %9
  %14 = load i32, i32* %3, align 4
  ret i32 %14
}

; Function Attrs: noinline nounwind uwtable
define dso_local i32 @main() #0 {
  %1 = alloca i32, align 4
  %2 = alloca i32, align 4
  %3 = alloca i32, align 4
  %4 = alloca i32, align 4
  %5 = alloca i8*, align 8
  %6 = alloca i64, align 8
  %7 = alloca i32, align 4
  store i32 0, i32* %1, align 4
  %8 = call i32 (i8*, ...) @__isoc99_scanf(i8* getelementptr inbounds ([3 x i8], [3 x i8]* @.str, i64 0, i64 0), i32* @n)
  %9 = load i32, i32* @n, align 4
  %10 = zext i32 %9 to i64
  %11 = call i8* @llvm.stacksave()
  store i8* %11, i8** %5, align 8
  %12 = alloca i32, i64 %10, align 16
  store i64 %10, i64* %6, align 8
  store i32 0, i32* %2, align 4
  br label %13

13:                                               ; preds = %29, %0
  %14 = load i32, i32* %2, align 4
  %15 = load i32, i32* @n, align 4
  %16 = icmp slt i32 %14, %15
  br i1 %16, label %17, label %32

17:                                               ; preds = %13
  %18 = load i32, i32* %2, align 4
  %19 = sext i32 %18 to i64
  %20 = getelementptr inbounds i32, i32* %12, i64 %19
  %21 = call i32 (i8*, ...) @__isoc99_scanf(i8* getelementptr inbounds ([3 x i8], [3 x i8]* @.str, i64 0, i64 0), i32* %20)
  %22 = load i32, i32* %2, align 4
  %23 = sext i32 %22 to i64
  %24 = getelementptr inbounds i32, i32* %12, i64 %23
  %25 = load i32, i32* %24, align 4
  %26 = load i32, i32* %2, align 4
  %27 = sext i32 %26 to i64
  %28 = getelementptr inbounds [26 x i32], [26 x i32]* @x, i64 0, i64 %27
  store i32 %25, i32* %28, align 4
  br label %29

29:                                               ; preds = %17
  %30 = load i32, i32* %2, align 4
  %31 = add nsw i32 %30, 1
  store i32 %31, i32* %2, align 4
  br label %13

32:                                               ; preds = %13
  %33 = load i32, i32* @n, align 4
  store i32 %33, i32* %2, align 4
  br label %34

34:                                               ; preds = %41, %32
  %35 = load i32, i32* %2, align 4
  %36 = icmp slt i32 %35, 26
  br i1 %36, label %37, label %44

37:                                               ; preds = %34
  %38 = load i32, i32* %2, align 4
  %39 = sext i32 %38 to i64
  %40 = getelementptr inbounds [26 x i32], [26 x i32]* @x, i64 0, i64 %39
  store i32 999999, i32* %40, align 4
  br label %41

41:                                               ; preds = %37
  %42 = load i32, i32* %2, align 4
  %43 = add nsw i32 %42, 1
  store i32 %43, i32* %2, align 4
  br label %34

44:                                               ; preds = %34
  %45 = call i32 @xxx(i32 999999, i32 0)
  store i32 %45, i32* %7, align 4
  %46 = load i32, i32* %7, align 4
  %47 = call i32 (i8*, ...) @printf(i8* getelementptr inbounds ([3 x i8], [3 x i8]* @.str, i64 0, i64 0), i32 %46)
  %48 = load i8*, i8** %5, align 8
  call void @llvm.stackrestore(i8* %48)
  %49 = load i32, i32* %1, align 4
  ret i32 %49
}

declare dso_local i32 @__isoc99_scanf(i8*, ...) #1

; Function Attrs: nounwind
declare i8* @llvm.stacksave() #2

; Function Attrs: noinline nounwind uwtable
define dso_local i32 @xxx(i32 %0, i32 %1) #0 {
  %3 = alloca i32, align 4
  %4 = alloca i32, align 4
  %5 = alloca i32, align 4
  store i32 %0, i32* %4, align 4
  store i32 %1, i32* %5, align 4
  %6 = load i32, i32* %5, align 4
  %7 = load i32, i32* @n, align 4
  %8 = sub nsw i32 %7, 1
  %9 = icmp eq i32 %6, %8
  br i1 %9, label %10, label %19

10:                                               ; preds = %2
  %11 = load i32, i32* %4, align 4
  %12 = load i32, i32* %5, align 4
  %13 = sext i32 %12 to i64
  %14 = getelementptr inbounds [26 x i32], [26 x i32]* @x, i64 0, i64 %13
  %15 = load i32, i32* %14, align 4
  %16 = icmp sge i32 %11, %15
  br i1 %16, label %17, label %18

17:                                               ; preds = %10
  store i32 1, i32* %3, align 4
  br label %45

18:                                               ; preds = %10
  store i32 0, i32* %3, align 4
  br label %45

19:                                               ; preds = %2
  %20 = load i32, i32* %4, align 4
  %21 = load i32, i32* %5, align 4
  %22 = sext i32 %21 to i64
  %23 = getelementptr inbounds [26 x i32], [26 x i32]* @x, i64 0, i64 %22
  %24 = load i32, i32* %23, align 4
  %25 = icmp slt i32 %20, %24
  br i1 %25, label %26, label %31

26:                                               ; preds = %19
  %27 = load i32, i32* %4, align 4
  %28 = load i32, i32* %5, align 4
  %29 = add nsw i32 %28, 1
  %30 = call i32 @xxx(i32 %27, i32 %29)
  store i32 %30, i32* %3, align 4
  br label %45

31:                                               ; preds = %19
  %32 = load i32, i32* %5, align 4
  %33 = sext i32 %32 to i64
  %34 = getelementptr inbounds [26 x i32], [26 x i32]* @x, i64 0, i64 %33
  %35 = load i32, i32* %34, align 4
  %36 = load i32, i32* %5, align 4
  %37 = add nsw i32 %36, 1
  %38 = call i32 @xxx(i32 %35, i32 %37)
  %39 = add nsw i32 1, %38
  %40 = load i32, i32* %4, align 4
  %41 = load i32, i32* %5, align 4
  %42 = add nsw i32 %41, 1
  %43 = call i32 @xxx(i32 %40, i32 %42)
  %44 = call i32 @max(i32 %39, i32 %43)
  store i32 %44, i32* %3, align 4
  br label %45

45:                                               ; preds = %31, %26, %18, %17
  %46 = load i32, i32* %3, align 4
  ret i32 %46
}

declare dso_local i32 @printf(i8*, ...) #1

; Function Attrs: nounwind
declare void @llvm.stackrestore(i8*) #2


!llvm.module.flags = !{!0}
!llvm.ident = !{!1}

!0 = !{i32 1, !"wchar_size", i32 4}
!1 = !{!"clang version 10.0.0-4ubuntu1 "}
